target datalayout = "e-m:e-p270:32:32-p271:32:32-p272:64:64-i64:64-i128:128-f80:128-n8:16:32:64-S128"
target triple = "x86_64-unknown-linux-gnu"

%struct.AioContext = type { %struct._GSource, %struct.QemuRecMutex, ptr, %struct.AioHandlerList, %struct.AioHandlerList, i32, %struct.QemuLockCnt, %struct.BHList, %struct.anon, i8, %struct.EventNotifier, %struct.anon.0, ptr, i32, i32, ptr, ptr, %struct.io_uring, %struct.AioHandlerSList, %struct.QEMUTimerListGroup, i32, i64, i64, i64, i64, i64, %struct.AioHandlerList, i8, i32, ptr }
%struct._GSource = type { ptr, ptr, ptr, i32, ptr, i32, i32, i32, ptr, ptr, ptr, ptr, ptr }
%struct.QemuRecMutex = type { %struct.QemuMutex }
%struct.QemuMutex = type { %union.pthread_mutex_t, i8 }
%union.pthread_mutex_t = type { %struct.__pthread_mutex_s }
%struct.__pthread_mutex_s = type { i32, i32, i32, i32, i32, i16, i16, %struct.__pthread_internal_list }
%struct.__pthread_internal_list = type { ptr, ptr }
%struct.QemuLockCnt = type { i32 }
%struct.BHList = type { ptr }
%struct.anon = type { ptr, ptr }
%struct.EventNotifier = type { i32, i32, i8 }
%struct.anon.0 = type { ptr }
%struct.io_uring = type { %struct.io_uring_sq, %struct.io_uring_cq, i32, i32, i32, [3 x i32] }
%struct.io_uring_sq = type { ptr, ptr, ptr, ptr, ptr, ptr, ptr, ptr, i32, i32, i64, ptr, [4 x i32] }
%struct.io_uring_cq = type { ptr, ptr, ptr, ptr, ptr, ptr, ptr, i64, ptr, [4 x i32] }
%struct.AioHandlerSList = type { ptr }
%struct.QEMUTimerListGroup = type { [4 x ptr] }
%struct.AioHandlerList = type { ptr }

@.str = private unnamed_addr constant [30 x i8] c"../qemu/util/fdmon-io_uring.c\00", align 1
@__func__.fdmon_io_uring_need_wait = private unnamed_addr constant [25 x i8] c"fdmon_io_uring_need_wait\00", align 1

; Function Attrs: nounwind sspstrong uwtable
define internal i32 @io_uring_sq_ready(ptr noundef %ring) #0 {
entry:
  %retval = alloca i32, align 4
  %ring.addr = alloca ptr, align 8
  %atomic-temp = alloca i32, align 4
  store ptr %ring, ptr %ring.addr, align 8
  %0 = load ptr, ptr %ring.addr, align 8
  %flags = getelementptr inbounds %struct.io_uring, ptr %0, i32 0, i32 2
  %1 = load i32, ptr %flags, align 8
  %and = and i32 %1, 2
  %tobool = icmp ne i32 %and, 0
  br i1 %tobool, label %if.then, label %if.end

if.then:                                          ; preds = %entry
  %2 = load ptr, ptr %ring.addr, align 8
  %sq = getelementptr inbounds %struct.io_uring, ptr %2, i32 0, i32 0
  %sqe_tail = getelementptr inbounds %struct.io_uring_sq, ptr %sq, i32 0, i32 9
  %3 = load i32, ptr %sqe_tail, align 4
  %4 = load ptr, ptr %ring.addr, align 8
  %sq1 = getelementptr inbounds %struct.io_uring, ptr %4, i32 0, i32 0
  %khead = getelementptr inbounds %struct.io_uring_sq, ptr %sq1, i32 0, i32 0
  %5 = load ptr, ptr %khead, align 8
  %6 = load atomic i32, ptr %5 acquire, align 4
  store i32 %6, ptr %atomic-temp, align 4
  %7 = load i32, ptr %atomic-temp, align 4
  %sub = sub i32 %3, %7
  store i32 %sub, ptr %retval, align 4
  br label %return

if.end:                                           ; preds = %entry
  %8 = load ptr, ptr %ring.addr, align 8
  %sq2 = getelementptr inbounds %struct.io_uring, ptr %8, i32 0, i32 0
  %sqe_tail3 = getelementptr inbounds %struct.io_uring_sq, ptr %sq2, i32 0, i32 9
  %9 = load i32, ptr %sqe_tail3, align 4
  %10 = load ptr, ptr %ring.addr, align 8
  %sq4 = getelementptr inbounds %struct.io_uring, ptr %10, i32 0, i32 0
  %khead5 = getelementptr inbounds %struct.io_uring_sq, ptr %sq4, i32 0, i32 0
  %11 = load ptr, ptr %khead5, align 8
  %12 = load i32, ptr %11, align 4
  %sub6 = sub i32 %9, %12
  store i32 %sub6, ptr %retval, align 4
  br label %return

return:                                           ; preds = %if.end, %if.then
  %13 = load i32, ptr %retval, align 4
  ret i32 %13
}

; Function Attrs: nounwind sspstrong uwtable
define internal i32 @io_uring_cq_ready(ptr noundef %ring) #0 {
entry:
  %ring.addr = alloca ptr, align 8
  %atomic-temp = alloca i32, align 4
  store ptr %ring, ptr %ring.addr, align 8
  %0 = load ptr, ptr %ring.addr, align 8
  %cq = getelementptr inbounds %struct.io_uring, ptr %0, i32 0, i32 1
  %ktail = getelementptr inbounds %struct.io_uring_cq, ptr %cq, i32 0, i32 1
  %1 = load ptr, ptr %ktail, align 8
  %2 = load atomic i32, ptr %1 acquire, align 4
  store i32 %2, ptr %atomic-temp, align 4
  %3 = load i32, ptr %atomic-temp, align 4
  %4 = load ptr, ptr %ring.addr, align 8
  %cq1 = getelementptr inbounds %struct.io_uring, ptr %4, i32 0, i32 1
  %khead = getelementptr inbounds %struct.io_uring_cq, ptr %cq1, i32 0, i32 0
  %5 = load ptr, ptr %khead, align 8
  %6 = load i32, ptr %5, align 4
  %sub = sub i32 %3, %6
  ret i32 %sub
}

; Function Attrs: nounwind sspstrong uwtable
define internal zeroext i1 @fdmon_io_uring_need_wait(ptr noundef %ctx) #0 {
entry:
  %retval = alloca i1, align 1
  %ctx.addr = alloca ptr, align 8
  %tmp = alloca ptr, align 8
  %atomic-temp = alloca ptr, align 8
  store ptr %ctx, ptr %ctx.addr, align 8
  %0 = load ptr, ptr %ctx.addr, align 8
  %fdmon_io_uring = getelementptr inbounds %struct.AioContext, ptr %0, i32 0, i32 17
  %call = call i32 @io_uring_cq_ready(ptr noundef %fdmon_io_uring)
  %tobool = icmp ne i32 %call, 0
  br i1 %tobool, label %if.then, label %if.end

if.then:                                          ; preds = %entry
  store i1 true, ptr %retval, align 1
  br label %return

if.end:                                           ; preds = %entry
  %1 = load ptr, ptr %ctx.addr, align 8
  %fdmon_io_uring1 = getelementptr inbounds %struct.AioContext, ptr %1, i32 0, i32 17
  %call2 = call i32 @io_uring_sq_ready(ptr noundef %fdmon_io_uring1)
  %tobool3 = icmp ne i32 %call2, 0
  br i1 %tobool3, label %if.then4, label %if.end5

if.then4:                                         ; preds = %if.end
  store i1 true, ptr %retval, align 1
  br label %return

if.end5:                                          ; preds = %if.end
  br label %while.cond

while.cond:                                       ; preds = %do.end, %if.end5
  br i1 false, label %while.body, label %while.end

while.body:                                       ; preds = %while.cond
  br label %do.body

do.body:                                          ; preds = %while.body
  call void @g_assertion_message_expr(ptr noundef null, ptr noundef @.str, i32 noundef 311, ptr noundef @__func__.fdmon_io_uring_need_wait, ptr noundef null) #4
  unreachable

do.end:                                           ; No predecessors!
  br label %while.cond

while.end:                                        ; preds = %while.cond
  %2 = load ptr, ptr %ctx.addr, align 8
  %submit_list = getelementptr inbounds %struct.AioContext, ptr %2, i32 0, i32 18
  %slh_first = getelementptr inbounds %struct.AioHandlerSList, ptr %submit_list, i32 0, i32 0
  %3 = load atomic i64, ptr %slh_first monotonic, align 8
  store i64 %3, ptr %atomic-temp, align 8
  %4 = load ptr, ptr %atomic-temp, align 8
  store ptr %4, ptr %tmp, align 8
  %5 = load ptr, ptr %tmp, align 8
  %cmp = icmp eq ptr %5, null
  br i1 %cmp, label %if.end7, label %if.then6

if.then6:                                         ; preds = %while.end
  store i1 true, ptr %retval, align 1
  br label %return

if.end7:                                          ; preds = %while.end
  store i1 false, ptr %retval, align 1
  br label %return

return:                                           ; preds = %if.end7, %if.then6, %if.then4, %if.then
  %6 = load i1, ptr %retval, align 1
  ret i1 %6
}