; Function Attrs: mustprogress nofree norecurse nounwind sspstrong willreturn memory(readwrite, inaccessiblemem: none) uwtable
define internal zeroext i1 @fdmon_io_uring_need_wait(ptr noundef readonly captures(none) %ctx) #2 {
entry:
  %cq.i = getelementptr inbounds nuw i8, ptr %ctx, i64 360
  %ktail.i = getelementptr inbounds nuw i8, ptr %ctx, i64 368
  %0 = load ptr, ptr %ktail.i, align 8
  %1 = load atomic i32, ptr %0 acquire, align 4
  %2 = load ptr, ptr %cq.i, align 8
  %3 = load i32, ptr %2, align 4
  %tobool.not = icmp eq i32 %1, %3
  br i1 %tobool.not, label %if.end, label %return

if.end:                                           ; preds = %entry
  %fdmon_io_uring = getelementptr inbounds nuw i8, ptr %ctx, i64 256
  %flags.i = getelementptr inbounds nuw i8, ptr %ctx, i64 448
  %4 = load i32, ptr %flags.i, align 8
  %and.i = and i32 %4, 2
  %tobool.not.i = icmp eq i32 %and.i, 0
  %sqe_tail3.i = getelementptr inbounds nuw i8, ptr %ctx, i64 324
  %5 = load i32, ptr %sqe_tail3.i, align 4
  %6 = load ptr, ptr %fdmon_io_uring, align 8
  br i1 %tobool.not.i, label %if.end.i, label %if.then.i

if.then.i:                                        ; preds = %if.end
  %7 = load atomic i32, ptr %6 acquire, align 4
  br label %io_uring_sq_ready.exit

if.end.i:                                         ; preds = %if.end
  %8 = load i32, ptr %6, align 4
  br label %io_uring_sq_ready.exit

io_uring_sq_ready.exit:                           ; preds = %if.then.i, %if.end.i
  %.sink.i = phi i32 [ %8, %if.end.i ], [ %7, %if.then.i ]
  %tobool3.not = icmp eq i32 %5, %.sink.i
  br i1 %tobool3.not, label %while.end, label %return

while.end:                                        ; preds = %io_uring_sq_ready.exit
  %submit_list = getelementptr inbounds nuw i8, ptr %ctx, i64 472
  %9 = load atomic i64, ptr %submit_list monotonic, align 8
  %cmp = icmp ne i64 %9, 0
  br label %return

return:                                           ; preds = %while.end, %io_uring_sq_ready.exit, %entry
  %retval.0 = phi i1 [ true, %entry ], [ true, %io_uring_sq_ready.exit ], [ %cmp, %while.end ]
  ret i1 %retval.0
}